; Function Attrs: mustprogress uwtable
define noundef nonnull align 8 dereferenceable(8) ptr @_ZN32pxrInternal_v0_24__pxrReserved__lsERSoRKNS_9GfLineSegE(ptr noundef nonnull align 8 dereferenceable(8) %0, ptr nocapture noundef nonnull readonly align 8 dereferenceable(56) %1) local_unnamed_addr #0 {
  %3 = alloca %"class.pxrInternal_v0_24__pxrReserved__::GfVec3d", align 8
  %4 = alloca %"class.pxrInternal_v0_24__pxrReserved__::GfVec3d", align 8
  %5 = tail call noundef nonnull align 8 dereferenceable(8) ptr @_ZStlsISt11char_traitsIcEERSt13basic_ostreamIcT_ES5_c(ptr noundef nonnull align 8 dereferenceable(8) %0, i8 noundef signext 40)
  %6 = tail call noundef nonnull align 8 dereferenceable(8) ptr @_ZStlsISt11char_traitsIcEERSt13basic_ostreamIcT_ES5_PKc(ptr noundef nonnull align 8 dereferenceable(8) %5, ptr noundef nonnull @.str.2)
  %7 = getelementptr inbounds nuw i8, ptr %1, i64 48
  %8 = load double, ptr %7, align 8, !noalias !48
  %9 = fmul double %8, 0.000000e+00
  %10 = getelementptr inbounds nuw i8, ptr %1, i64 24
  %.sroa.0.0.copyload.i.i.i = load double, ptr %10, align 8, !noalias !51
  %.sroa.4.0..sroa_idx.i.i.i = getelementptr inbounds i8, ptr %1, i64 32
  %.sroa.4.0.copyload.i.i.i = load double, ptr %.sroa.4.0..sroa_idx.i.i.i, align 8, !noalias !51
  %.sroa.6.0..sroa_idx.i.i.i = getelementptr inbounds i8, ptr %1, i64 40
  %.sroa.6.0.copyload.i.i.i = load double, ptr %.sroa.6.0..sroa_idx.i.i.i, align 8, !noalias !51
  %11 = fmul double %9, %.sroa.0.0.copyload.i.i.i
  %12 = fmul double %9, %.sroa.4.0.copyload.i.i.i
  %13 = fmul double %9, %.sroa.6.0.copyload.i.i.i
  %.sroa.0.0.copyload.i2.i.i = load double, ptr %1, align 8, !noalias !56
  %.sroa.4.0..sroa_idx.i3.i.i = getelementptr inbounds i8, ptr %1, i64 8
  %.sroa.4.0.copyload.i4.i.i = load double, ptr %.sroa.4.0..sroa_idx.i3.i.i, align 8, !noalias !56
  %.sroa.6.0..sroa_idx.i5.i.i = getelementptr inbounds i8, ptr %1, i64 16
  %.sroa.6.0.copyload.i6.i.i = load double, ptr %.sroa.6.0..sroa_idx.i5.i.i, align 8, !noalias !56
  %14 = fadd double %11, %.sroa.0.0.copyload.i2.i.i
  %15 = fadd double %12, %.sroa.4.0.copyload.i4.i.i
  %16 = fadd double %13, %.sroa.6.0.copyload.i6.i.i
  store double %14, ptr %3, align 8
  %.sroa.4.0..sroa_idx = getelementptr inbounds i8, ptr %3, i64 8
  store double %15, ptr %.sroa.4.0..sroa_idx, align 8
  %.sroa.5.0..sroa_idx = getelementptr inbounds i8, ptr %3, i64 16
  store double %16, ptr %.sroa.5.0..sroa_idx, align 8
  %17 = call noundef nonnull align 8 dereferenceable(8) ptr @_ZN32pxrInternal_v0_24__pxrReserved__lsERSoRKNS_7GfVec3dE(ptr noundef nonnull align 8 dereferenceable(8) %6, ptr noundef nonnull align 8 dereferenceable(24) %3)
  %18 = call noundef nonnull align 8 dereferenceable(8) ptr @_ZStlsISt11char_traitsIcEERSt13basic_ostreamIcT_ES5_c(ptr noundef nonnull align 8 dereferenceable(8) %17, i8 noundef signext 32)
  %19 = call noundef nonnull align 8 dereferenceable(8) ptr @_ZStlsISt11char_traitsIcEERSt13basic_ostreamIcT_ES5_PKc(ptr noundef nonnull align 8 dereferenceable(8) %18, ptr noundef nonnull @.str.3)
  %20 = load double, ptr %7, align 8, !noalias !59
  %.sroa.0.0.copyload.i.i.i3 = load double, ptr %10, align 8, !noalias !62
  %.sroa.4.0.copyload.i.i.i5 = load double, ptr %.sroa.4.0..sroa_idx.i.i.i, align 8, !noalias !62
  %.sroa.6.0.copyload.i.i.i7 = load double, ptr %.sroa.6.0..sroa_idx.i.i.i, align 8, !noalias !62
  %21 = fmul double %20, %.sroa.0.0.copyload.i.i.i3
  %22 = fmul double %20, %.sroa.4.0.copyload.i.i.i5
  %23 = fmul double %20, %.sroa.6.0.copyload.i.i.i7
  %.sroa.0.0.copyload.i2.i.i8 = load double, ptr %1, align 8, !noalias !67
  %.sroa.4.0.copyload.i4.i.i10 = load double, ptr %.sroa.4.0..sroa_idx.i3.i.i, align 8, !noalias !67
  %.sroa.6.0.copyload.i6.i.i12 = load double, ptr %.sroa.6.0..sroa_idx.i5.i.i, align 8, !noalias !67
  %24 = fadd double %21, %.sroa.0.0.copyload.i2.i.i8
  %25 = fadd double %22, %.sroa.4.0.copyload.i4.i.i10
  %26 = fadd double %23, %.sroa.6.0.copyload.i6.i.i12
  store double %24, ptr %4, align 8
  %.sroa.420.0..sroa_idx = getelementptr inbounds i8, ptr %4, i64 8
  store double %25, ptr %.sroa.420.0..sroa_idx, align 8
  %.sroa.521.0..sroa_idx = getelementptr inbounds i8, ptr %4, i64 16
  store double %26, ptr %.sroa.521.0..sroa_idx, align 8
  %27 = call noundef nonnull align 8 dereferenceable(8) ptr @_ZN32pxrInternal_v0_24__pxrReserved__lsERSoRKNS_7GfVec3dE(ptr noundef nonnull align 8 dereferenceable(8) %19, ptr noundef nonnull align 8 dereferenceable(24) %4)
  %28 = call noundef nonnull align 8 dereferenceable(8) ptr @_ZStlsISt11char_traitsIcEERSt13basic_ostreamIcT_ES5_c(ptr noundef nonnull align 8 dereferenceable(8) %27, i8 noundef signext 41)
  ret ptr %28
}